; Function Attrs: nounwind uwtable
define ptr @l_Lean_PersistentHashMap_insertAux___at_Lean_Meta_Grind_addCongrTable___spec__5___boxed(ptr noundef %0, ptr noundef %1, ptr noundef %2, ptr noundef %3, ptr noundef %4, ptr noundef %5) local_unnamed_addr #1 {
  %7 = getelementptr i8, ptr %2, i64 8
  %.val13 = load i64, ptr %7, align 8, !tbaa !12
  %8 = ptrtoint ptr %2 to i64
  %9 = and i64 %8, 1
  %.not = icmp eq i64 %9, 0
  br i1 %.not, label %10, label %lean_dec.exit10

10:                                               ; preds = %6
  %11 = load i32, ptr %2, align 4, !tbaa !4
  %12 = icmp sgt i32 %11, 1
  br i1 %12, label %13, label %15, !prof !11

13:                                               ; preds = %10
  %14 = add nsw i32 %11, -1
  store i32 %14, ptr %2, align 4, !tbaa !4
  br label %lean_dec.exit10

15:                                               ; preds = %10
  %.not.i = icmp eq i32 %11, 0
  br i1 %.not.i, label %lean_dec.exit10, label %16

16:                                               ; preds = %15
  tail call void @lean_dec_ref_cold(ptr noundef nonnull %2) #4
  br label %lean_dec.exit10

lean_dec.exit10:                                  ; preds = %16, %15, %13, %6
  %17 = getelementptr i8, ptr %3, i64 8
  %.val = load i64, ptr %17, align 8, !tbaa !12
  %18 = ptrtoint ptr %3 to i64
  %19 = and i64 %18, 1
  %.not14 = icmp eq i64 %19, 0
  br i1 %.not14, label %20, label %lean_dec.exit

20:                                               ; preds = %lean_dec.exit10
  %21 = load i32, ptr %3, align 4, !tbaa !4
  %22 = icmp sgt i32 %21, 1
  br i1 %22, label %23, label %25, !prof !11

23:                                               ; preds = %20
  %24 = add nsw i32 %21, -1
  store i32 %24, ptr %3, align 4, !tbaa !4
  br label %lean_dec.exit

25:                                               ; preds = %20
  %.not.i11 = icmp eq i32 %21, 0
  br i1 %.not.i11, label %lean_dec.exit, label %26

26:                                               ; preds = %25
  tail call void @lean_dec_ref_cold(ptr noundef nonnull %3) #4
  br label %lean_dec.exit

lean_dec.exit:                                    ; preds = %26, %25, %23, %lean_dec.exit10
  %27 = tail call ptr @l_Lean_PersistentHashMap_insertAux___at_Lean_Meta_Grind_addCongrTable___spec__5(ptr noundef %0, ptr noundef %1, i64 noundef %.val13, i64 noundef %.val, ptr noundef %4, ptr noundef %5)
  ret ptr %27
}